target datalayout = "e-m:e-p270:32:32-p271:32:32-p272:64:64-i64:64-i128:128-f80:128-n8:16:32:64-S128"
target triple = "x86_64-pc-linux-gnu"

%struct.rb_data_type_struct = type { ptr, %struct.anon.12, ptr, ptr, i64 }
%struct.anon.12 = type { ptr, ptr, ptr, ptr, [1 x ptr] }
%struct.rb_ractor_basket = type { %union.anon.13, i64, %union.anon.14 }
%union.anon.13 = type { i32 }
%union.anon.14 = type { %struct.anon.15 }
%struct.anon.15 = type { i64, i8 }
%struct.RData = type { %struct.RBasic, ptr, ptr, ptr }
%struct.RBasic = type { i64, i64 }
%struct.rb_ractor_selector = type { ptr, %struct.rb_ractor_basket, ptr }

@ractor_data_type = internal constant %struct.rb_data_type_struct { ptr @.str.61, %struct.anon.12 { ptr @ractor_mark, ptr @ractor_free, ptr @ractor_memsize, ptr null, [1 x ptr] zeroinitializer }, ptr null, ptr null, i64 1 }, align 8
@rb_eArgError = external global i64, align 8
@.str.81 = private unnamed_addr constant [20 x i8] c"Not a ractor object\00", align 1
@.str.83 = private unnamed_addr constant [14 x i8] c"not added yet\00", align 1

; Function Attrs: nounwind sspstrong uwtable
define internal ptr @RACTOR_SELECTOR_PTR(i64 noundef %0) #0 {
  %2 = alloca i64, align 8
  store i64 %0, ptr %2, align 8, !tbaa !16
  %3 = load i64, ptr %2, align 8, !tbaa !16
  %4 = inttoptr i64 %3 to ptr
  %5 = getelementptr inbounds nuw %struct.RData, ptr %4, i32 0, i32 3
  %6 = load ptr, ptr %5, align 8, !tbaa !117
  ret ptr %6
}

; Function Attrs: inlinehint nounwind sspstrong uwtable
define internal ptr @RACTOR_PTR(i64 noundef %0) #4 {
  %2 = alloca i64, align 8
  %3 = alloca ptr, align 8
  store i64 %0, ptr %2, align 8, !tbaa !16
  call void @llvm.lifetime.start.p0(i64 8, ptr %3) #16
  %4 = load i64, ptr %2, align 8, !tbaa !16
  %5 = inttoptr i64 %4 to ptr
  %6 = getelementptr inbounds nuw %struct.RData, ptr %5, i32 0, i32 3
  %7 = load ptr, ptr %6, align 8, !tbaa !117
  store ptr %7, ptr %3, align 8, !tbaa !7
  %8 = load ptr, ptr %3, align 8, !tbaa !7
  call void @llvm.lifetime.end.p0(i64 8, ptr %3) #16
  ret ptr %8
}

; Function Attrs: nounwind sspstrong uwtable
define hidden zeroext i1 @rb_ractor_p(i64 noundef %0) #0 {
  %2 = alloca i1, align 1
  %3 = alloca i64, align 8
  store i64 %0, ptr %3, align 8, !tbaa !16
  %4 = load i64, ptr %3, align 8, !tbaa !16
  %5 = call i32 @rb_typeddata_is_kind_of(i64 noundef %4, ptr noundef @ractor_data_type)
  %6 = icmp ne i32 %5, 0
  br i1 %6, label %7, label %8

7:                                                ; preds = %1
  store i1 true, ptr %2, align 1
  br label %9

8:                                                ; preds = %1
  store i1 false, ptr %2, align 1
  br label %9

9:                                                ; preds = %8, %7
  %10 = load i1, ptr %2, align 1
  ret i1 %10
}

; Function Attrs: nounwind sspstrong uwtable
define internal i64 @ractor_selector_remove(i64 noundef %0, i64 noundef %1) #0 {
  %3 = alloca i64, align 8
  %4 = alloca i64, align 8
  %5 = alloca ptr, align 8
  %6 = alloca ptr, align 8
  %7 = alloca ptr, align 8
  store i64 %0, ptr %3, align 8, !tbaa !16
  store i64 %1, ptr %4, align 8, !tbaa !16
  %8 = load i64, ptr %4, align 8, !tbaa !16
  %9 = call zeroext i1 @rb_ractor_p(i64 noundef %8)
  br i1 %9, label %12, label %10

10:                                               ; preds = %2
  %11 = load i64, ptr @rb_eArgError, align 8, !tbaa !16
  call void (i64, ptr, ...) @rb_raise(i64 noundef %11, ptr noundef @.str.81) #30
  unreachable

12:                                               ; preds = %2
  call void @llvm.lifetime.start.p0(i64 8, ptr %5) #16
  %13 = load i64, ptr %4, align 8, !tbaa !16
  %14 = call ptr @RACTOR_PTR(i64 noundef %13)
  store ptr %14, ptr %5, align 8, !tbaa !7
  call void @llvm.lifetime.start.p0(i64 8, ptr %6) #16
  %15 = load i64, ptr %3, align 8, !tbaa !16
  %16 = call ptr @RACTOR_SELECTOR_PTR(i64 noundef %15)
  store ptr %16, ptr %6, align 8, !tbaa !134
  %17 = load ptr, ptr %6, align 8, !tbaa !134
  %18 = getelementptr inbounds nuw %struct.rb_ractor_selector, ptr %17, i32 0, i32 2
  %19 = load ptr, ptr %18, align 8, !tbaa !136
  %20 = load ptr, ptr %5, align 8, !tbaa !7
  %21 = ptrtoint ptr %20 to i64
  %22 = call i32 @rb_st_lookup(ptr noundef %19, i64 noundef %21, ptr noundef null)
  %23 = icmp ne i32 %22, 0
  br i1 %23, label %26, label %24

24:                                               ; preds = %12
  %25 = load i64, ptr @rb_eArgError, align 8, !tbaa !16
  call void (i64, ptr, ...) @rb_raise(i64 noundef %25, ptr noundef @.str.83) #30
  unreachable

26:                                               ; preds = %12
  %27 = load ptr, ptr %5, align 8, !tbaa !7
  %28 = load ptr, ptr %6, align 8, !tbaa !134
  %29 = getelementptr inbounds nuw %struct.rb_ractor_selector, ptr %28, i32 0, i32 1
  %30 = call zeroext i1 @ractor_deregister_take(ptr noundef %27, ptr noundef %29)
  call void @llvm.lifetime.start.p0(i64 8, ptr %7) #16
  %31 = load ptr, ptr %6, align 8, !tbaa !134
  %32 = getelementptr inbounds nuw %struct.rb_ractor_selector, ptr %31, i32 0, i32 2
  %33 = load ptr, ptr %32, align 8, !tbaa !136
  %34 = call i32 @rb_st_delete(ptr noundef %33, ptr noundef %5, ptr noundef %7)
  %35 = load ptr, ptr %7, align 8, !tbaa !138
  call void @free(ptr noundef %35) #16
  %36 = load i64, ptr %4, align 8, !tbaa !16
  call void @llvm.lifetime.end.p0(i64 8, ptr %7) #16
  call void @llvm.lifetime.end.p0(i64 8, ptr %6) #16
  call void @llvm.lifetime.end.p0(i64 8, ptr %5) #16
  ret i64 %36
}