; Function Attrs: nounwind sspstrong uwtable
define internal noundef i64 @ractor_selector_remove(i64 noundef %0, i64 noundef returned %1) #0 {
  %3 = alloca ptr, align 8
  %4 = alloca ptr, align 8
  %5 = tail call i32 @rb_typeddata_is_kind_of(i64 noundef %1, ptr noundef nonnull @ractor_data_type) #19
  %.not.i.not = icmp eq i32 %5, 0
  br i1 %.not.i.not, label %6, label %8

6:                                                ; preds = %2
  %7 = load i64, ptr @rb_eArgError, align 8, !tbaa !80
  tail call void (i64, ptr, ...) @rb_raise(i64 noundef %7, ptr noundef nonnull @.str.81) #27
  unreachable

8:                                                ; preds = %2
  call void @llvm.lifetime.start.p0(i64 8, ptr nonnull %3) #19
  %9 = inttoptr i64 %1 to ptr
  %10 = getelementptr inbounds nuw i8, ptr %9, i64 32
  %11 = load ptr, ptr %10, align 8, !tbaa !111
  store ptr %11, ptr %3, align 8, !tbaa !39
  %12 = inttoptr i64 %0 to ptr
  %13 = getelementptr inbounds nuw i8, ptr %12, i64 32
  %14 = load ptr, ptr %13, align 8, !tbaa !111
  %15 = getelementptr inbounds nuw i8, ptr %14, i64 40
  %16 = load ptr, ptr %15, align 8, !tbaa !138
  %17 = ptrtoint ptr %11 to i64
  %18 = tail call i32 @rb_st_lookup(ptr noundef %16, i64 noundef %17, ptr noundef null) #19
  %.not = icmp eq i32 %18, 0
  br i1 %.not, label %19, label %21

19:                                               ; preds = %8
  %20 = load i64, ptr @rb_eArgError, align 8, !tbaa !80
  tail call void (i64, ptr, ...) @rb_raise(i64 noundef %20, ptr noundef nonnull @.str.83) #27
  unreachable

21:                                               ; preds = %8
  %22 = getelementptr inbounds nuw i8, ptr %14, i64 8
  %23 = tail call fastcc zeroext i1 @ractor_deregister_take(ptr noundef %11, ptr noundef nonnull %22)
  call void @llvm.lifetime.start.p0(i64 8, ptr nonnull %4) #19
  %24 = load ptr, ptr %15, align 8, !tbaa !138
  %25 = call i32 @rb_st_delete(ptr noundef %24, ptr noundef nonnull %3, ptr noundef nonnull %4) #19
  %26 = load ptr, ptr %4, align 8, !tbaa !142
  call void @free(ptr noundef %26) #19
  call void @llvm.lifetime.end.p0(i64 8, ptr nonnull %4) #19
  call void @llvm.lifetime.end.p0(i64 8, ptr nonnull %3) #19
  ret i64 %1
}